
Book.o:     file format elf64-x86-64


Disassembly of section .text:

0000000000000000 <_ZN4BookC1Ev>:
#include "Book.h"
#include <iostream>

// Constructors 

Book::Book() {
   0:	55                   	push   %rbp
   1:	48 89 e5             	mov    %rsp,%rbp
   4:	48 83 ec 10          	sub    $0x10,%rsp
   8:	48 89 7d f8          	mov    %rdi,-0x8(%rbp)
   c:	48 8b 45 f8          	mov    -0x8(%rbp),%rax
  10:	48 89 c7             	mov    %rax,%rdi
  13:	e8 00 00 00 00       	callq  18 <_ZN4BookC1Ev+0x18>
  18:	48 8b 45 f8          	mov    -0x8(%rbp),%rax
  1c:	48 83 c0 20          	add    $0x20,%rax
  20:	48 89 c7             	mov    %rax,%rdi
  23:	e8 00 00 00 00       	callq  28 <_ZN4BookC1Ev+0x28>
  28:	48 8b 45 f8          	mov    -0x8(%rbp),%rax
  2c:	48 83 c0 40          	add    $0x40,%rax
  30:	48 89 c7             	mov    %rax,%rdi
  33:	e8 00 00 00 00       	callq  38 <_ZN4BookC1Ev+0x38>
	// empty constructor
	// default values for the types are fine
}
  38:	90                   	nop
  39:	c9                   	leaveq 
  3a:	c3                   	retq   
  3b:	90                   	nop

000000000000003c <_ZN4BookC1ERKNSt7__cxx1112basic_stringIcSt11char_traitsIcESaIcEEES7_S7_b>:

Book::Book(const string& isbn, const string& tle, const string& auth, bool ch_out)
  3c:	55                   	push   %rbp
  3d:	48 89 e5             	mov    %rsp,%rbp
  40:	53                   	push   %rbx
  41:	48 83 ec 38          	sub    $0x38,%rsp
  45:	48 89 7d e8          	mov    %rdi,-0x18(%rbp)
  49:	48 89 75 e0          	mov    %rsi,-0x20(%rbp)
  4d:	48 89 55 d8          	mov    %rdx,-0x28(%rbp)
  51:	48 89 4d d0          	mov    %rcx,-0x30(%rbp)
  55:	44 89 c0             	mov    %r8d,%eax
  58:	88 45 cc             	mov    %al,-0x34(%rbp)
	:ISBN{isbn},title{tle},author{auth},checked_out{ch_out}
  5b:	48 8b 45 e8          	mov    -0x18(%rbp),%rax
  5f:	48 8b 55 e0          	mov    -0x20(%rbp),%rdx
  63:	48 89 d6             	mov    %rdx,%rsi
  66:	48 89 c7             	mov    %rax,%rdi
  69:	e8 00 00 00 00       	callq  6e <_ZN4BookC1ERKNSt7__cxx1112basic_stringIcSt11char_traitsIcESaIcEEES7_S7_b+0x32>
  6e:	48 8b 45 e8          	mov    -0x18(%rbp),%rax
  72:	48 8d 50 20          	lea    0x20(%rax),%rdx
  76:	48 8b 45 d8          	mov    -0x28(%rbp),%rax
  7a:	48 89 c6             	mov    %rax,%rsi
  7d:	48 89 d7             	mov    %rdx,%rdi
  80:	e8 00 00 00 00       	callq  85 <_ZN4BookC1ERKNSt7__cxx1112basic_stringIcSt11char_traitsIcESaIcEEES7_S7_b+0x49>
  85:	48 8b 45 e8          	mov    -0x18(%rbp),%rax
  89:	48 8d 50 40          	lea    0x40(%rax),%rdx
  8d:	48 8b 45 d0          	mov    -0x30(%rbp),%rax
  91:	48 89 c6             	mov    %rax,%rsi
  94:	48 89 d7             	mov    %rdx,%rdi
  97:	e8 00 00 00 00       	callq  9c <_ZN4BookC1ERKNSt7__cxx1112basic_stringIcSt11char_traitsIcESaIcEEES7_S7_b+0x60>
  9c:	48 8b 45 e8          	mov    -0x18(%rbp),%rax
  a0:	0f b6 55 cc          	movzbl -0x34(%rbp),%edx
  a4:	88 50 60             	mov    %dl,0x60(%rax)
{
	// empty constructor
}
  a7:	eb 2f                	jmp    d8 <_ZN4BookC1ERKNSt7__cxx1112basic_stringIcSt11char_traitsIcESaIcEEES7_S7_b+0x9c>
  a9:	48 89 c3             	mov    %rax,%rbx
	:ISBN{isbn},title{tle},author{auth},checked_out{ch_out}
  ac:	48 8b 45 e8          	mov    -0x18(%rbp),%rax
  b0:	48 83 c0 20          	add    $0x20,%rax
  b4:	48 89 c7             	mov    %rax,%rdi
  b7:	e8 00 00 00 00       	callq  bc <_ZN4BookC1ERKNSt7__cxx1112basic_stringIcSt11char_traitsIcESaIcEEES7_S7_b+0x80>
  bc:	eb 03                	jmp    c1 <_ZN4BookC1ERKNSt7__cxx1112basic_stringIcSt11char_traitsIcESaIcEEES7_S7_b+0x85>
  be:	48 89 c3             	mov    %rax,%rbx
  c1:	48 8b 45 e8          	mov    -0x18(%rbp),%rax
  c5:	48 89 c7             	mov    %rax,%rdi
  c8:	e8 00 00 00 00       	callq  cd <_ZN4BookC1ERKNSt7__cxx1112basic_stringIcSt11char_traitsIcESaIcEEES7_S7_b+0x91>
  cd:	48 89 d8             	mov    %rbx,%rax
  d0:	48 89 c7             	mov    %rax,%rdi
  d3:	e8 00 00 00 00       	callq  d8 <_ZN4BookC1ERKNSt7__cxx1112basic_stringIcSt11char_traitsIcESaIcEEES7_S7_b+0x9c>
}
  d8:	48 83 c4 38          	add    $0x38,%rsp
  dc:	5b                   	pop    %rbx
  dd:	5d                   	pop    %rbp
  de:	c3                   	retq   
  df:	90                   	nop

00000000000000e0 <_ZNK4Book8get_ISBNB5cxx11Ev>:

// Get members

const string& Book::get_ISBN() const {
  e0:	55                   	push   %rbp
  e1:	48 89 e5             	mov    %rsp,%rbp
  e4:	48 89 7d f8          	mov    %rdi,-0x8(%rbp)
	return ISBN;
  e8:	48 8b 45 f8          	mov    -0x8(%rbp),%rax
}
  ec:	5d                   	pop    %rbp
  ed:	c3                   	retq   

00000000000000ee <_ZNK4Book9get_titleB5cxx11Ev>:

const string& Book::get_title() const {
  ee:	55                   	push   %rbp
  ef:	48 89 e5             	mov    %rsp,%rbp
  f2:	48 89 7d f8          	mov    %rdi,-0x8(%rbp)
	return title;
  f6:	48 8b 45 f8          	mov    -0x8(%rbp),%rax
  fa:	48 83 c0 20          	add    $0x20,%rax
}
  fe:	5d                   	pop    %rbp
  ff:	c3                   	retq   

0000000000000100 <_ZNK4Book10get_authorB5cxx11Ev>:

const string& Book::get_author() const {
 100:	55                   	push   %rbp
 101:	48 89 e5             	mov    %rsp,%rbp
 104:	48 89 7d f8          	mov    %rdi,-0x8(%rbp)
	return author;
 108:	48 8b 45 f8          	mov    -0x8(%rbp),%rax
 10c:	48 83 c0 40          	add    $0x40,%rax
}
 110:	5d                   	pop    %rbp
 111:	c3                   	retq   

0000000000000112 <_ZNK4Book14is_checked_outEv>:

bool Book::is_checked_out() const {
 112:	55                   	push   %rbp
 113:	48 89 e5             	mov    %rsp,%rbp
 116:	48 89 7d f8          	mov    %rdi,-0x8(%rbp)
	return checked_out;
 11a:	48 8b 45 f8          	mov    -0x8(%rbp),%rax
 11e:	0f b6 40 60          	movzbl 0x60(%rax),%eax
}
 122:	5d                   	pop    %rbp
 123:	c3                   	retq   

0000000000000124 <_ZN4Book8set_ISBNERKNSt7__cxx1112basic_stringIcSt11char_traitsIcESaIcEEE>:

// Set members

void Book::set_ISBN(const string& isbn) {
 124:	55                   	push   %rbp
 125:	48 89 e5             	mov    %rsp,%rbp
 128:	48 83 ec 10          	sub    $0x10,%rsp
 12c:	48 89 7d f8          	mov    %rdi,-0x8(%rbp)
 130:	48 89 75 f0          	mov    %rsi,-0x10(%rbp)
	ISBN = isbn;
 134:	48 8b 45 f8          	mov    -0x8(%rbp),%rax
 138:	48 8b 55 f0          	mov    -0x10(%rbp),%rdx
 13c:	48 89 d6             	mov    %rdx,%rsi
 13f:	48 89 c7             	mov    %rax,%rdi
 142:	e8 00 00 00 00       	callq  147 <_ZN4Book8set_ISBNERKNSt7__cxx1112basic_stringIcSt11char_traitsIcESaIcEEE+0x23>
}
 147:	90                   	nop
 148:	c9                   	leaveq 
 149:	c3                   	retq   

000000000000014a <_ZN4Book10set_authorERKNSt7__cxx1112basic_stringIcSt11char_traitsIcESaIcEEE>:

void Book::set_author(const string& auth) {
 14a:	55                   	push   %rbp
 14b:	48 89 e5             	mov    %rsp,%rbp
 14e:	48 83 ec 10          	sub    $0x10,%rsp
 152:	48 89 7d f8          	mov    %rdi,-0x8(%rbp)
 156:	48 89 75 f0          	mov    %rsi,-0x10(%rbp)
	author = auth;
 15a:	48 8b 45 f8          	mov    -0x8(%rbp),%rax
 15e:	48 8d 50 40          	lea    0x40(%rax),%rdx
 162:	48 8b 45 f0          	mov    -0x10(%rbp),%rax
 166:	48 89 c6             	mov    %rax,%rsi
 169:	48 89 d7             	mov    %rdx,%rdi
 16c:	e8 00 00 00 00       	callq  171 <_ZN4Book10set_authorERKNSt7__cxx1112basic_stringIcSt11char_traitsIcESaIcEEE+0x27>
}
 171:	90                   	nop
 172:	c9                   	leaveq 
 173:	c3                   	retq   

0000000000000174 <_ZN4Book9set_titleERKNSt7__cxx1112basic_stringIcSt11char_traitsIcESaIcEEE>:

void Book::set_title(const string& tle) { 
 174:	55                   	push   %rbp
 175:	48 89 e5             	mov    %rsp,%rbp
 178:	48 83 ec 10          	sub    $0x10,%rsp
 17c:	48 89 7d f8          	mov    %rdi,-0x8(%rbp)
 180:	48 89 75 f0          	mov    %rsi,-0x10(%rbp)
	title = tle;
 184:	48 8b 45 f8          	mov    -0x8(%rbp),%rax
 188:	48 8d 50 20          	lea    0x20(%rax),%rdx
 18c:	48 8b 45 f0          	mov    -0x10(%rbp),%rax
 190:	48 89 c6             	mov    %rax,%rsi
 193:	48 89 d7             	mov    %rdx,%rdi
 196:	e8 00 00 00 00       	callq  19b <_ZN4Book9set_titleERKNSt7__cxx1112basic_stringIcSt11char_traitsIcESaIcEEE+0x27>
}
 19b:	90                   	nop
 19c:	c9                   	leaveq 
 19d:	c3                   	retq   

000000000000019e <_ZN4Book9check_outEv>:

void Book::check_out() {
 19e:	55                   	push   %rbp
 19f:	48 89 e5             	mov    %rsp,%rbp
 1a2:	48 83 ec 10          	sub    $0x10,%rsp
 1a6:	48 89 7d f8          	mov    %rdi,-0x8(%rbp)

	if(checked_out) {
 1aa:	48 8b 45 f8          	mov    -0x8(%rbp),%rax
 1ae:	0f b6 40 60          	movzbl 0x60(%rax),%eax
 1b2:	84 c0                	test   %al,%al
 1b4:	74 11                	je     1c7 <_ZN4Book9check_outEv+0x29>
		cout << "This title is already checked out!\n";
 1b6:	be 00 00 00 00       	mov    $0x0,%esi
 1bb:	bf 00 00 00 00       	mov    $0x0,%edi
 1c0:	e8 00 00 00 00       	callq  1c5 <_ZN4Book9check_outEv+0x27>
		return;
 1c5:	eb 08                	jmp    1cf <_ZN4Book9check_outEv+0x31>
	}else{
		checked_out = true;
 1c7:	48 8b 45 f8          	mov    -0x8(%rbp),%rax
 1cb:	c6 40 60 01          	movb   $0x1,0x60(%rax)
	}
}
 1cf:	c9                   	leaveq 
 1d0:	c3                   	retq   
 1d1:	90                   	nop

00000000000001d2 <_ZN4Book8check_inEv>:

void Book::check_in() {
 1d2:	55                   	push   %rbp
 1d3:	48 89 e5             	mov    %rsp,%rbp
 1d6:	48 83 ec 10          	sub    $0x10,%rsp
 1da:	48 89 7d f8          	mov    %rdi,-0x8(%rbp)

	if(checked_out){
 1de:	48 8b 45 f8          	mov    -0x8(%rbp),%rax
 1e2:	0f b6 40 60          	movzbl 0x60(%rax),%eax
 1e6:	84 c0                	test   %al,%al
 1e8:	74 0a                	je     1f4 <_ZN4Book8check_inEv+0x22>
		checked_out = false;
 1ea:	48 8b 45 f8          	mov    -0x8(%rbp),%rax
 1ee:	c6 40 60 00          	movb   $0x0,0x60(%rax)
 1f2:	eb 10                	jmp    204 <_ZN4Book8check_inEv+0x32>
	}else{
		cout << "This title is already checked in!\n";
 1f4:	be 00 00 00 00       	mov    $0x0,%esi
 1f9:	bf 00 00 00 00       	mov    $0x0,%edi
 1fe:	e8 00 00 00 00       	callq  203 <_ZN4Book8check_inEv+0x31>
		return;
 203:	90                   	nop
	}
}
 204:	c9                   	leaveq 
 205:	c3                   	retq   

0000000000000206 <_ZNK4Book5printEv>:

void Book::print() const {
 206:	55                   	push   %rbp
 207:	48 89 e5             	mov    %rsp,%rbp
 20a:	48 83 ec 10          	sub    $0x10,%rsp
 20e:	48 89 7d f8          	mov    %rdi,-0x8(%rbp)
	cout << "ISBN: " << ISBN << "\n";
 212:	be 00 00 00 00       	mov    $0x0,%esi
 217:	bf 00 00 00 00       	mov    $0x0,%edi
 21c:	e8 00 00 00 00       	callq  221 <_ZNK4Book5printEv+0x1b>
 221:	48 89 c2             	mov    %rax,%rdx
 224:	48 8b 45 f8          	mov    -0x8(%rbp),%rax
 228:	48 89 c6             	mov    %rax,%rsi
 22b:	48 89 d7             	mov    %rdx,%rdi
 22e:	e8 00 00 00 00       	callq  233 <_ZNK4Book5printEv+0x2d>
 233:	be 00 00 00 00       	mov    $0x0,%esi
 238:	48 89 c7             	mov    %rax,%rdi
 23b:	e8 00 00 00 00       	callq  240 <_ZNK4Book5printEv+0x3a>
	cout << "Title: " << title << "\n";
 240:	be 00 00 00 00       	mov    $0x0,%esi
 245:	bf 00 00 00 00       	mov    $0x0,%edi
 24a:	e8 00 00 00 00       	callq  24f <_ZNK4Book5printEv+0x49>
 24f:	48 89 c2             	mov    %rax,%rdx
 252:	48 8b 45 f8          	mov    -0x8(%rbp),%rax
 256:	48 83 c0 20          	add    $0x20,%rax
 25a:	48 89 c6             	mov    %rax,%rsi
 25d:	48 89 d7             	mov    %rdx,%rdi
 260:	e8 00 00 00 00       	callq  265 <_ZNK4Book5printEv+0x5f>
 265:	be 00 00 00 00       	mov    $0x0,%esi
 26a:	48 89 c7             	mov    %rax,%rdi
 26d:	e8 00 00 00 00       	callq  272 <_ZNK4Book5printEv+0x6c>
	cout << "Author: " << author << "\n";
 272:	be 00 00 00 00       	mov    $0x0,%esi
 277:	bf 00 00 00 00       	mov    $0x0,%edi
 27c:	e8 00 00 00 00       	callq  281 <_ZNK4Book5printEv+0x7b>
 281:	48 89 c2             	mov    %rax,%rdx
 284:	48 8b 45 f8          	mov    -0x8(%rbp),%rax
 288:	48 83 c0 40          	add    $0x40,%rax
 28c:	48 89 c6             	mov    %rax,%rsi
 28f:	48 89 d7             	mov    %rdx,%rdi
 292:	e8 00 00 00 00       	callq  297 <_ZNK4Book5printEv+0x91>
 297:	be 00 00 00 00       	mov    $0x0,%esi
 29c:	48 89 c7             	mov    %rax,%rdi
 29f:	e8 00 00 00 00       	callq  2a4 <_ZNK4Book5printEv+0x9e>
	cout << "Check out status: " << checked_out << "\n";
 2a4:	be 00 00 00 00       	mov    $0x0,%esi
 2a9:	bf 00 00 00 00       	mov    $0x0,%edi
 2ae:	e8 00 00 00 00       	callq  2b3 <_ZNK4Book5printEv+0xad>
 2b3:	48 89 c2             	mov    %rax,%rdx
 2b6:	48 8b 45 f8          	mov    -0x8(%rbp),%rax
 2ba:	0f b6 40 60          	movzbl 0x60(%rax),%eax
 2be:	0f b6 c0             	movzbl %al,%eax
 2c1:	89 c6                	mov    %eax,%esi
 2c3:	48 89 d7             	mov    %rdx,%rdi
 2c6:	e8 00 00 00 00       	callq  2cb <_ZNK4Book5printEv+0xc5>
 2cb:	be 00 00 00 00       	mov    $0x0,%esi
 2d0:	48 89 c7             	mov    %rax,%rdi
 2d3:	e8 00 00 00 00       	callq  2d8 <_ZNK4Book5printEv+0xd2>
}
 2d8:	90                   	nop
 2d9:	c9                   	leaveq 
 2da:	c3                   	retq   

00000000000002db <_Z41__static_initialization_and_destruction_0ii>:
 2db:	55                   	push   %rbp
 2dc:	48 89 e5             	mov    %rsp,%rbp
 2df:	48 83 ec 10          	sub    $0x10,%rsp
 2e3:	89 7d fc             	mov    %edi,-0x4(%rbp)
 2e6:	89 75 f8             	mov    %esi,-0x8(%rbp)
 2e9:	83 7d fc 01          	cmpl   $0x1,-0x4(%rbp)
 2ed:	75 27                	jne    316 <_Z41__static_initialization_and_destruction_0ii+0x3b>
 2ef:	81 7d f8 ff ff 00 00 	cmpl   $0xffff,-0x8(%rbp)
 2f6:	75 1e                	jne    316 <_Z41__static_initialization_and_destruction_0ii+0x3b>
  extern wostream wclog;	/// Linked to standard error (buffered)
#endif
  //@}

  // For construction of filebuffers for cout, cin, cerr, clog et. al.
  static ios_base::Init __ioinit;
 2f8:	bf 00 00 00 00       	mov    $0x0,%edi
 2fd:	e8 00 00 00 00       	callq  302 <_Z41__static_initialization_and_destruction_0ii+0x27>
 302:	ba 00 00 00 00       	mov    $0x0,%edx
 307:	be 00 00 00 00       	mov    $0x0,%esi
 30c:	bf 00 00 00 00       	mov    $0x0,%edi
 311:	e8 00 00 00 00       	callq  316 <_Z41__static_initialization_and_destruction_0ii+0x3b>
 316:	90                   	nop
 317:	c9                   	leaveq 
 318:	c3                   	retq   

0000000000000319 <_GLOBAL__sub_I__ZN4BookC2Ev>:
 319:	55                   	push   %rbp
 31a:	48 89 e5             	mov    %rsp,%rbp
 31d:	be ff ff 00 00       	mov    $0xffff,%esi
 322:	bf 01 00 00 00       	mov    $0x1,%edi
 327:	e8 af ff ff ff       	callq  2db <_Z41__static_initialization_and_destruction_0ii>
 32c:	5d                   	pop    %rbp
 32d:	c3                   	retq   
